	.file	"sec_soft.c"
	.section	.text
.Ltext0:
	.cfi_sections	.debug_frame
	.global	IO_CUSTOM
	.section	.sdata,"aws",@progbits
	.align	2
	.type	IO_CUSTOM, @object
	.size	IO_CUSTOM, 4
IO_CUSTOM:
	.long	135168
	.global	__mulsi3
	.section	.text
	.align	2
	.type	fxmult_2_8, @function
fxmult_2_8:
.LFB0:
	.file 1 "sec_soft.c"
	.loc 1 34 0
	.cfi_startproc
	addi	sp, sp, -20
	.cfi_def_cfa_offset 20
	stw	ra, 16(sp)
	stw	fp, 12(sp)
	.cfi_offset 31, -4
	.cfi_offset 28, -8
	addi	fp, sp, 12
	.cfi_def_cfa 28, 8
	stw	r4, -8(fp)
	stw	r5, -4(fp)
	.loc 1 35 0
	ldw	r5, -4(fp)
	ldw	r4, -8(fp)
	call	__mulsi3
	stw	r2, -12(fp)
	.loc 1 36 0
	ldw	r2, -12(fp)
	srai	r2, r2, 8
	.loc 1 37 0
	mov	sp, fp
	.cfi_def_cfa_register 27
	ldw	ra, 4(sp)
	.cfi_restore 31
	ldw	fp, 0(sp)
	.cfi_restore 28
	addi	sp, sp, 8
	.cfi_def_cfa_offset 0
	ret
	.cfi_endproc
.LFE0:
	.size	fxmult_2_8, .-fxmult_2_8
	.section	.rodata
	.align	2
.LC0:
	.string	"--> Start of sec_soft <--\n"
	.align	2
.LC1:
	.string	"Block nr. = %x\n"
	.section	.text
	.align	2
	.global	main
	.type	main, @function
main:
.LFB1:
	.loc 1 42 0
	.cfi_startproc
	addi	sp, sp, -104
	.cfi_def_cfa_offset 104
	stw	ra, 100(sp)
	stw	fp, 96(sp)
	.cfi_offset 31, -4
	.cfi_offset 28, -8
	addi	fp, sp, 96
	.cfi_def_cfa 28, 8
	.loc 1 44 0
	stw	zero, -96(fp)
	.loc 1 45 0
	stw	zero, -92(fp)
	.loc 1 48 0
	movi	r2, 140
	stw	r2, -76(fp)
	.loc 1 49 0
	movi	r2, -280
	stw	r2, -72(fp)
	.loc 1 50 0
	movi	r2, 140
	stw	r2, -68(fp)
	.loc 1 51 0
	movi	r2, 225
	stw	r2, -64(fp)
	.loc 1 52 0
	movi	r2, -80
	stw	r2, -60(fp)
	.loc 1 59 0
	movhi	r4, %hiadj(.LC0)
	addi	r4, r4, %lo(.LC0)
	call	alt_putstr
	.loc 1 62 0
	stw	zero, -88(fp)
.L12:
.LBB2:
	.loc 1 66 0
	ldw	r2, %gprel(IO_CUSTOM)(gp)
	addi	r2, r2, 32
	movi	r3, 1
	stw	r3, 0(r2)
	.loc 1 68 0
	nop
.L4:
	.loc 1 68 0 is_stmt 0 discriminator 1
	ldw	r2, %gprel(IO_CUSTOM)(gp)
	addi	r2, r2, 40
	ldw	r2, 0(r2)
	bne	r2, zero, .L4
	.loc 1 74 0 is_stmt 1
	stw	zero, -84(fp)
	br	.L5
.L10:
.LBB3:
	.loc 1 76 0
	ldw	r3, %gprel(IO_CUSTOM)(gp)
	ldw	r2, -84(fp)
	add	r2, r2, r2
	add	r2, r2, r2
	add	r2, r3, r2
	ldw	r2, 0(r2)
	stw	r2, -56(fp)
	.loc 1 82 0
	ldw	r2, -56(fp)
	andi	r2, r2, 32768
	beq	r2, zero, .L6
	.loc 1 83 0
	ldw	r2, -56(fp)
	orhi	r2, r2, 65535
	stw	r2, -16(fp)
	br	.L7
.L6:
	.loc 1 85 0
	ldw	r2, -56(fp)
	andi	r2, r2, 65535
	stw	r2, -16(fp)
.L7:
	.loc 1 86 0
	ldw	r2, -56(fp)
	srai	r2, r2, 16
	stw	r2, -12(fp)
	.loc 1 90 0
	stw	zero, -80(fp)
	br	.L8
.L9:
	.loc 1 92 0 discriminator 3
	ldw	r2, -80(fp)
	add	r2, r2, r2
	add	r2, r2, r2
	addi	r3, fp, -96
	add	r2, r3, r2
	addi	r2, r2, 80
	ldw	r2, 0(r2)
	mov	r5, r2
	ldw	r4, -76(fp)
	call	fxmult_2_8
	stw	r2, -52(fp)
	.loc 1 93 0 discriminator 3
	ldw	r2, -80(fp)
	add	r2, r2, r2
	add	r2, r2, r2
	addi	r3, fp, -96
	add	r2, r3, r2
	addi	r2, r2, 80
	ldw	r2, 0(r2)
	mov	r5, r2
	ldw	r4, -72(fp)
	call	fxmult_2_8
	stw	r2, -48(fp)
	.loc 1 94 0 discriminator 3
	ldw	r2, -80(fp)
	add	r2, r2, r2
	add	r2, r2, r2
	addi	r3, fp, -96
	add	r2, r3, r2
	addi	r2, r2, 80
	ldw	r2, 0(r2)
	mov	r5, r2
	ldw	r4, -68(fp)
	call	fxmult_2_8
	stw	r2, -44(fp)
	.loc 1 95 0 discriminator 3
	ldw	r3, -92(fp)
	ldw	r2, -52(fp)
	add	r2, r3, r2
	stw	r2, -40(fp)
	.loc 1 96 0 discriminator 3
	ldw	r5, -40(fp)
	ldw	r4, -64(fp)
	call	fxmult_2_8
	stw	r2, -36(fp)
	.loc 1 97 0 discriminator 3
	ldw	r5, -40(fp)
	ldw	r4, -60(fp)
	call	fxmult_2_8
	stw	r2, -32(fp)
	.loc 1 98 0 discriminator 3
	ldw	r3, -44(fp)
	ldw	r2, -32(fp)
	add	r2, r3, r2
	stw	r2, -28(fp)
	.loc 1 99 0 discriminator 3
	ldw	r3, -96(fp)
	ldw	r2, -48(fp)
	add	r2, r3, r2
	stw	r2, -24(fp)
	.loc 1 100 0 discriminator 3
	ldw	r3, -24(fp)
	ldw	r2, -36(fp)
	add	r2, r3, r2
	stw	r2, -20(fp)
	.loc 1 102 0 discriminator 3
	ldw	r2, -28(fp)
	stw	r2, -96(fp)
	.loc 1 103 0 discriminator 3
	ldw	r2, -20(fp)
	stw	r2, -92(fp)
	.loc 1 105 0 discriminator 3
	ldw	r2, -80(fp)
	add	r2, r2, r2
	add	r2, r2, r2
	addi	r3, fp, -96
	add	r2, r3, r2
	addi	r2, r2, 88
	ldw	r3, -40(fp)
	stw	r3, 0(r2)
	.loc 1 90 0 discriminator 3
	ldw	r2, -80(fp)
	addi	r2, r2, 1
	stw	r2, -80(fp)
.L8:
	.loc 1 90 0 is_stmt 0 discriminator 1
	ldw	r2, -80(fp)
	cmplti	r2, r2, 2
	bne	r2, zero, .L9
	.loc 1 108 0 is_stmt 1 discriminator 2
	ldw	r3, %gprel(IO_CUSTOM)(gp)
	ldw	r2, -84(fp)
	add	r2, r2, r2
	add	r2, r2, r2
	add	r2, r3, r2
	ldw	r3, -4(fp)
	slli	r3, r3, 16
	mov	r4, r3
	.loc 1 109 0 discriminator 2
	ldw	r3, -8(fp)
	.loc 1 108 0 discriminator 2
	andi	r3, r3, 65535
	or	r3, r4, r3
	stw	r3, 0(r2)
.LBE3:
	.loc 1 74 0 discriminator 2
	ldw	r2, -84(fp)
	addi	r2, r2, 1
	stw	r2, -84(fp)
.L5:
	.loc 1 74 0 is_stmt 0 discriminator 1
	ldw	r2, -84(fp)
	cmplti	r2, r2, 8
	bne	r2, zero, .L10
	.loc 1 113 0 is_stmt 1
	ldw	r2, %gprel(IO_CUSTOM)(gp)
	addi	r2, r2, 36
	movi	r3, 1
	stw	r3, 0(r2)
	.loc 1 114 0
	nop
.L11:
	.loc 1 114 0 is_stmt 0 discriminator 1
	ldw	r2, %gprel(IO_CUSTOM)(gp)
	addi	r2, r2, 44
	ldw	r2, 0(r2)
	bne	r2, zero, .L11
	.loc 1 119 0 is_stmt 1
	ldw	r2, -88(fp)
	addi	r2, r2, 1
	stw	r2, -88(fp)
	ldw	r5, -88(fp)
	movhi	r4, %hiadj(.LC1)
	addi	r4, r4, %lo(.LC1)
	call	alt_printf
.LBE2:
	.loc 1 120 0
	br	.L12
	.cfi_endproc
.LFE1:
	.size	main, .-main
.Letext0: